target datalayout = "e-m:e-p270:32:32-p271:32:32-p272:64:64-i64:64-i128:128-f80:128-n8:16:32:64-S128"
target triple = "x86_64-pc-linux-gnu"

@.str.1619 = private unnamed_addr constant [11 x i8] c"Spare (%u)\00", align 1
@.str.1629 = private unnamed_addr constant [19 x i8] c"RSCP < -115dBm (0)\00", align 1
@.str.1630 = private unnamed_addr constant [20 x i8] c"RSCP >= -25dBm (91)\00", align 1
@.str.1631 = private unnamed_addr constant [27 x i8] c"%ddBm <= RSCP < %ddBm (%u)\00", align 1

; Function Attrs: null_pointer_is_valid sspstrong uwtable
define internal void @ulp_PrimaryCCPCH_RSCP_fmt(ptr noundef %0, i32 noundef %1) #0 {
  %3 = alloca ptr, align 8
  %4 = alloca i32, align 4
  store ptr %0, ptr %3, align 8
  store i32 %1, ptr %4, align 4
  %5 = load i32, ptr %4, align 4
  %6 = icmp eq i32 %5, 0
  br i1 %6, label %7, label %12

7:                                                ; preds = %2
  %8 = load ptr, ptr %3, align 8
  %9 = load ptr, ptr %3, align 8
  %10 = call i64 @llvm.objectsize.i64.p0(ptr %9, i1 false, i1 true, i1 true)
  %11 = call i32 (ptr, i64, i32, i64, ptr, ...) @__snprintf_chk(ptr noundef %8, i64 noundef 240, i32 noundef 2, i64 noundef %10, ptr noundef @.str.1629)
  br label %41

12:                                               ; preds = %2
  %13 = load i32, ptr %4, align 4
  %14 = icmp eq i32 %13, 91
  br i1 %14, label %15, label %20

15:                                               ; preds = %12
  %16 = load ptr, ptr %3, align 8
  %17 = load ptr, ptr %3, align 8
  %18 = call i64 @llvm.objectsize.i64.p0(ptr %17, i1 false, i1 true, i1 true)
  %19 = call i32 (ptr, i64, i32, i64, ptr, ...) @__snprintf_chk(ptr noundef %16, i64 noundef 240, i32 noundef 2, i64 noundef %18, ptr noundef @.str.1630)
  br label %40

20:                                               ; preds = %12
  %21 = load i32, ptr %4, align 4
  %22 = icmp ugt i32 %21, 91
  br i1 %22, label %23, label %29

23:                                               ; preds = %20
  %24 = load ptr, ptr %3, align 8
  %25 = load ptr, ptr %3, align 8
  %26 = call i64 @llvm.objectsize.i64.p0(ptr %25, i1 false, i1 true, i1 true)
  %27 = load i32, ptr %4, align 4
  %28 = call i32 (ptr, i64, i32, i64, ptr, ...) @__snprintf_chk(ptr noundef %24, i64 noundef 240, i32 noundef 2, i64 noundef %26, ptr noundef @.str.1619, i32 noundef %27)
  br label %39

29:                                               ; preds = %20
  %30 = load ptr, ptr %3, align 8
  %31 = load ptr, ptr %3, align 8
  %32 = call i64 @llvm.objectsize.i64.p0(ptr %31, i1 false, i1 true, i1 true)
  %33 = load i32, ptr %4, align 4
  %34 = add i32 -116, %33
  %35 = load i32, ptr %4, align 4
  %36 = add i32 -115, %35
  %37 = load i32, ptr %4, align 4
  %38 = call i32 (ptr, i64, i32, i64, ptr, ...) @__snprintf_chk(ptr noundef %30, i64 noundef 240, i32 noundef 2, i64 noundef %32, ptr noundef @.str.1631, i32 noundef %34, i32 noundef %36, i32 noundef %37)
  br label %39

39:                                               ; preds = %29, %23
  br label %40

40:                                               ; preds = %39, %15
  br label %41

41:                                               ; preds = %40, %7
  ret void
}