; Function Attrs: nofree null_pointer_is_valid sspstrong uwtable
define internal void @ulp_PrimaryCCPCH_RSCP_fmt(ptr noundef %0, i32 noundef %1) #1 {
  switch i32 %1, label %7 [
    i32 0, label %3
    i32 91, label %5
  ]

3:                                                ; preds = %2
  %4 = tail call i32 (ptr, i64, i32, i64, ptr, ...) @__snprintf_chk(ptr noundef %0, i64 noundef 240, i32 noundef 2, i64 noundef -1, ptr noundef nonnull @.str.1629)
  br label %15

5:                                                ; preds = %2
  %6 = tail call i32 (ptr, i64, i32, i64, ptr, ...) @__snprintf_chk(ptr noundef %0, i64 noundef 240, i32 noundef 2, i64 noundef -1, ptr noundef nonnull @.str.1630)
  br label %15

7:                                                ; preds = %2
  %8 = icmp ugt i32 %1, 91
  br i1 %8, label %9, label %11

9:                                                ; preds = %7
  %10 = tail call i32 (ptr, i64, i32, i64, ptr, ...) @__snprintf_chk(ptr noundef %0, i64 noundef 240, i32 noundef 2, i64 noundef -1, ptr noundef nonnull @.str.1619, i32 noundef %1)
  br label %15

11:                                               ; preds = %7
  %12 = add nuw nsw i32 %1, -116
  %13 = add nuw nsw i32 %1, -115
  %14 = tail call i32 (ptr, i64, i32, i64, ptr, ...) @__snprintf_chk(ptr noundef %0, i64 noundef 240, i32 noundef 2, i64 noundef -1, ptr noundef nonnull @.str.1631, i32 noundef %12, i32 noundef %13, i32 noundef %1)
  br label %15

15:                                               ; preds = %5, %11, %9, %3
  ret void
}